target datalayout = "e-m:e-p270:32:32-p271:32:32-p272:64:64-i64:64-i128:128-f80:128-n8:16:32:64-S128"
target triple = "x86_64-pc-linux-gnu"

; Function Attrs: mustprogress uwtable
define i64 @zmq_msg_size(ptr noundef %0) #1 {
  %2 = alloca ptr, align 8
  store ptr %0, ptr %2, align 8, !tbaa !23
  %3 = load ptr, ptr %2, align 8, !tbaa !23
  %4 = call noundef i64 @_ZNK3zmq5msg_t4sizeEv(ptr noundef nonnull align 8 dereferenceable(64) %3)
  ret i64 %4
}

; Function Attrs: inlinehint mustprogress uwtable
define internal noundef i32 @_ZL9s_sendmsgPN3zmq13socket_base_tEP9zmq_msg_ti(ptr noundef %0, ptr noundef %1, i32 noundef %2) #9 {
  %4 = alloca i32, align 4
  %5 = alloca ptr, align 8
  %6 = alloca ptr, align 8
  %7 = alloca i32, align 4
  %8 = alloca i64, align 8
  %9 = alloca i32, align 4
  %10 = alloca i32, align 4
  %11 = alloca i64, align 8
  store ptr %0, ptr %5, align 8, !tbaa !17
  store ptr %1, ptr %6, align 8, !tbaa !23
  store i32 %2, ptr %7, align 4, !tbaa !8
  call void @llvm.lifetime.start.p0(i64 8, ptr %8) #20
  %12 = load ptr, ptr %6, align 8, !tbaa !23
  %13 = call i64 @zmq_msg_size(ptr noundef %12)
  store i64 %13, ptr %8, align 8, !tbaa !13
  call void @llvm.lifetime.start.p0(i64 4, ptr %9) #20
  %14 = load ptr, ptr %5, align 8, !tbaa !17
  %15 = load ptr, ptr %6, align 8, !tbaa !23
  %16 = load i32, ptr %7, align 4, !tbaa !8
  %17 = call noundef i32 @_ZN3zmq13socket_base_t4sendEPNS_5msg_tEi(ptr noundef nonnull align 8 dereferenceable(1825) %14, ptr noundef %15, i32 noundef %16)
  store i32 %17, ptr %9, align 4, !tbaa !8
  %18 = load i32, ptr %9, align 4, !tbaa !8
  %19 = icmp slt i32 %18, 0
  %20 = zext i1 %19 to i64
  %21 = call i64 @llvm.expect.i64(i64 %20, i64 0)
  %22 = icmp ne i64 %21, 0
  br i1 %22, label %23, label %24

23:                                               ; preds = %3
  store i32 -1, ptr %4, align 4
  store i32 1, ptr %10, align 4
  br label %35

24:                                               ; preds = %3
  call void @llvm.lifetime.start.p0(i64 8, ptr %11) #20
  store i64 2147483647, ptr %11, align 8, !tbaa !13
  %25 = load i64, ptr %8, align 8, !tbaa !13
  %26 = load i64, ptr %11, align 8, !tbaa !13
  %27 = icmp ult i64 %25, %26
  br i1 %27, label %28, label %30

28:                                               ; preds = %24
  %29 = load i64, ptr %8, align 8, !tbaa !13
  br label %32

30:                                               ; preds = %24
  %31 = load i64, ptr %11, align 8, !tbaa !13
  br label %32

32:                                               ; preds = %30, %28
  %33 = phi i64 [ %29, %28 ], [ %31, %30 ]
  %34 = trunc i64 %33 to i32
  store i32 %34, ptr %4, align 4
  store i32 1, ptr %10, align 4
  call void @llvm.lifetime.end.p0(i64 8, ptr %11) #20
  br label %35

35:                                               ; preds = %32, %23
  call void @llvm.lifetime.end.p0(i64 4, ptr %9) #20
  call void @llvm.lifetime.end.p0(i64 8, ptr %8) #20
  %36 = load i32, ptr %4, align 4
  ret i32 %36
}

; Function Attrs: mustprogress uwtable
define internal noundef ptr @_ZL16as_socket_base_tPv(ptr noundef %0) #1 {
  %2 = alloca ptr, align 8
  %3 = alloca ptr, align 8
  %4 = alloca ptr, align 8
  %5 = alloca i32, align 4
  store ptr %0, ptr %3, align 8, !tbaa !12
  call void @llvm.lifetime.start.p0(i64 8, ptr %4) #20
  %6 = load ptr, ptr %3, align 8, !tbaa !12
  store ptr %6, ptr %4, align 8, !tbaa !17
  %7 = load ptr, ptr %3, align 8, !tbaa !12
  %8 = icmp ne ptr %7, null
  br i1 %8, label %9, label %12

9:                                                ; preds = %1
  %10 = load ptr, ptr %4, align 8, !tbaa !17
  %11 = call noundef zeroext i1 @_ZNK3zmq13socket_base_t9check_tagEv(ptr noundef nonnull align 8 dereferenceable(1825) %10)
  br i1 %11, label %14, label %12

12:                                               ; preds = %9, %1
  %13 = call ptr @__errno_location() #19
  store i32 88, ptr %13, align 4, !tbaa !8
  store ptr null, ptr %2, align 8
  store i32 1, ptr %5, align 4
  br label %16

14:                                               ; preds = %9
  %15 = load ptr, ptr %4, align 8, !tbaa !17
  store ptr %15, ptr %2, align 8
  store i32 1, ptr %5, align 4
  br label %16

16:                                               ; preds = %14, %12
  call void @llvm.lifetime.end.p0(i64 8, ptr %4) #20
  %17 = load ptr, ptr %2, align 8
  ret ptr %17
}

; Function Attrs: mustprogress uwtable
define i32 @zmq_msg_send(ptr noundef %0, ptr noundef %1, i32 noundef %2) #1 {
  %4 = alloca i32, align 4
  %5 = alloca ptr, align 8
  %6 = alloca ptr, align 8
  %7 = alloca i32, align 4
  %8 = alloca ptr, align 8
  %9 = alloca i32, align 4
  store ptr %0, ptr %5, align 8, !tbaa !23
  store ptr %1, ptr %6, align 8, !tbaa !12
  store i32 %2, ptr %7, align 4, !tbaa !8
  call void @llvm.lifetime.start.p0(i64 8, ptr %8) #20
  %10 = load ptr, ptr %6, align 8, !tbaa !12
  %11 = call noundef ptr @_ZL16as_socket_base_tPv(ptr noundef %10)
  store ptr %11, ptr %8, align 8, !tbaa !17
  %12 = load ptr, ptr %8, align 8, !tbaa !17
  %13 = icmp ne ptr %12, null
  br i1 %13, label %15, label %14

14:                                               ; preds = %3
  store i32 -1, ptr %4, align 4
  store i32 1, ptr %9, align 4
  br label %20

15:                                               ; preds = %3
  %16 = load ptr, ptr %8, align 8, !tbaa !17
  %17 = load ptr, ptr %5, align 8, !tbaa !23
  %18 = load i32, ptr %7, align 4, !tbaa !8
  %19 = call noundef i32 @_ZL9s_sendmsgPN3zmq13socket_base_tEP9zmq_msg_ti(ptr noundef %16, ptr noundef %17, i32 noundef %18)
  store i32 %19, ptr %4, align 4
  store i32 1, ptr %9, align 4
  br label %20

20:                                               ; preds = %15, %14
  call void @llvm.lifetime.end.p0(i64 8, ptr %8) #20
  %21 = load i32, ptr %4, align 4
  ret i32 %21
}

; Function Attrs: mustprogress uwtable
define i32 @zmq_sendmsg(ptr noundef %0, ptr noundef %1, i32 noundef %2) #1 {
  %4 = alloca ptr, align 8
  %5 = alloca ptr, align 8
  %6 = alloca i32, align 4
  store ptr %0, ptr %4, align 8, !tbaa !12
  store ptr %1, ptr %5, align 8, !tbaa !23
  store i32 %2, ptr %6, align 4, !tbaa !8
  %7 = load ptr, ptr %5, align 8, !tbaa !23
  %8 = load ptr, ptr %4, align 8, !tbaa !12
  %9 = load i32, ptr %6, align 4, !tbaa !8
  %10 = call i32 @zmq_msg_send(ptr noundef %7, ptr noundef %8, i32 noundef %9)
  ret i32 %10
}