; Function Attrs: mustprogress uwtable
define range(i32 -1, -2147483648) i32 @zmq_sendmsg(ptr noundef %0, ptr noundef %1, i32 noundef %2) local_unnamed_addr #1 {
  %.not.i.i = icmp eq ptr %0, null
  br i1 %.not.i.i, label %_ZL16as_socket_base_tPv.exit.thread.i, label %4

4:                                                ; preds = %3
  %5 = tail call noundef zeroext i1 @_ZNK3zmq13socket_base_t9check_tagEv(ptr noundef nonnull align 8 dereferenceable(1825) %0)
  br i1 %5, label %_ZL16as_socket_base_tPv.exit.i, label %_ZL16as_socket_base_tPv.exit.thread.i

_ZL16as_socket_base_tPv.exit.thread.i:            ; preds = %4, %3
  %6 = tail call ptr @__errno_location() #20
  store i32 88, ptr %6, align 4, !tbaa !3
  br label %zmq_msg_send.exit

_ZL16as_socket_base_tPv.exit.i:                   ; preds = %4
  %7 = tail call noundef i64 @_ZNK3zmq5msg_t4sizeEv(ptr noundef nonnull align 8 dereferenceable(64) %1)
  %8 = tail call noundef i32 @_ZN3zmq13socket_base_t4sendEPNS_5msg_tEi(ptr noundef nonnull align 8 dereferenceable(1825) %0, ptr noundef nonnull %1, i32 noundef %2)
  %9 = tail call i64 @llvm.umin.i64(i64 %7, i64 2147483647)
  %10 = trunc nuw nsw i64 %9 to i32
  %.inv.i.i = icmp sgt i32 %8, -1
  %.0.i6.i = select i1 %.inv.i.i, i32 %10, i32 -1, !prof !9
  br label %zmq_msg_send.exit

zmq_msg_send.exit:                                ; preds = %_ZL16as_socket_base_tPv.exit.thread.i, %_ZL16as_socket_base_tPv.exit.i
  %.0.i = phi i32 [ %.0.i6.i, %_ZL16as_socket_base_tPv.exit.i ], [ -1, %_ZL16as_socket_base_tPv.exit.thread.i ]
  ret i32 %.0.i
}